; Function Attrs: mustprogress uwtable
define noundef nonnull ptr @_ZN8nanobind6detail22str_from_cstr_and_sizeEPKcm(ptr noundef %0, i64 noundef %1) local_unnamed_addr #15 {
  %3 = tail call ptr @PyUnicode_FromStringAndSize(ptr noundef %0, i64 noundef %1)
  %.not = icmp eq ptr %3, null
  br i1 %.not, label %4, label %5

4:                                                ; preds = %2
  tail call void (ptr, ...) @_ZN8nanobind6detail5raiseEPKcz(ptr noundef nonnull @.str.6) #28
  unreachable

5:                                                ; preds = %2
  ret ptr %3
}